target datalayout = "e-m:e-p270:32:32-p271:32:32-p272:64:64-i64:64-i128:128-f80:128-n8:16:32:64-S128"
target triple = "x86_64-pc-linux-gnu"

%"class.open_spiel::algorithms::MDPNode" = type { i8, double, %"class.absl::debian2::flat_hash_map", double, %"class.std::__cxx11::basic_string" }
%"class.absl::debian2::flat_hash_map" = type { %"class.absl::debian2::container_internal::raw_hash_map" }
%"class.absl::debian2::container_internal::raw_hash_map" = type { %"class.absl::debian2::container_internal::raw_hash_set" }
%"class.absl::debian2::container_internal::raw_hash_set" = type { ptr, ptr, i64, i64, %"class.absl::debian2::container_internal::CompressedTuple" }
%"class.absl::debian2::container_internal::CompressedTuple" = type { %"struct.absl::debian2::container_internal::internal_compressed_tuple::CompressedTupleImpl" }
%"struct.absl::debian2::container_internal::internal_compressed_tuple::CompressedTupleImpl" = type { %"struct.absl::debian2::container_internal::internal_compressed_tuple::Storage" }
%"struct.absl::debian2::container_internal::internal_compressed_tuple::Storage" = type { i64 }
%"class.std::__cxx11::basic_string" = type { %"struct.std::__cxx11::basic_string<char>::_Alloc_hider", i64, %union.anon }
%"struct.std::__cxx11::basic_string<char>::_Alloc_hider" = type { ptr }
%union.anon = type { i64, [8 x i8] }
%"class.absl::debian2::container_internal::HashtablezInfoHandle" = type { i8 }
%"struct.absl::debian2::hash_internal::Hash" = type { i8 }
%"struct.std::equal_to" = type { i8 }
%"class.std::allocator" = type { i8 }

@_ZZN4absl7debian218container_internal10EmptyGroupEvE11empty_group = linkonce_odr constant [16 x i8] c"\FF\80\80\80\80\80\80\80\80\80\80\80\80\80\80\80", comdat, align 16

; Function Attrs: mustprogress nounwind uwtable
define linkonce_odr void @_ZNSt15__new_allocatorISt4pairIKlN4absl7debian213flat_hash_mapIPN10open_spiel10algorithms7MDPNodeEdNS3_18container_internal6HashEqIS8_vE4HashENSB_2EqESaIS0_IKS8_dEEEEEEC2ERKSJ_(ptr noundef nonnull align 1 dereferenceable(1) %0, ptr noundef nonnull align 1 dereferenceable(1) %1) unnamed_addr #5 comdat align 2 {
  %3 = alloca ptr, align 8
  %4 = alloca ptr, align 8
  store ptr %0, ptr %3, align 8
  store ptr %1, ptr %4, align 8
  ret void
}

; Function Attrs: mustprogress nounwind uwtable
define linkonce_odr void @_ZNSaISt4pairIKlN4absl7debian213flat_hash_mapIPN10open_spiel10algorithms7MDPNodeEdNS2_18container_internal6HashEqIS7_vE4HashENSA_2EqESaIS_IKS7_dEEEEEEC2ERKSI_(ptr noundef nonnull align 1 dereferenceable(1) %0, ptr noundef nonnull align 1 dereferenceable(1) %1) unnamed_addr #5 comdat align 2 {
  %3 = alloca ptr, align 8
  %4 = alloca ptr, align 8
  store ptr %0, ptr %3, align 8
  store ptr %1, ptr %4, align 8
  %5 = load ptr, ptr %3, align 8
  %6 = load ptr, ptr %4, align 8
  call void @_ZNSt15__new_allocatorISt4pairIKlN4absl7debian213flat_hash_mapIPN10open_spiel10algorithms7MDPNodeEdNS3_18container_internal6HashEqIS8_vE4HashENSB_2EqESaIS0_IKS8_dEEEEEEC2ERKSJ_(ptr noundef nonnull align 1 dereferenceable(1) %5, ptr noundef nonnull align 1 dereferenceable(1) %6) #3
  ret void
}

; Function Attrs: mustprogress nounwind uwtable
define linkonce_odr void @_ZN4absl7debian218container_internal25internal_compressed_tuple7StorageISaISt4pairIKlNS0_13flat_hash_mapIPN10open_spiel10algorithms7MDPNodeEdNS1_6HashEqISA_vE4HashENSC_2EqESaIS4_IKSA_dEEEEEELm4ELb1EEC2ISK_EENS0_10in_place_tEOT_(ptr noundef nonnull align 1 dereferenceable(1) %0, ptr noundef nonnull align 1 dereferenceable(1) %1) unnamed_addr #5 comdat align 2 {
  %3 = alloca ptr, align 8
  %4 = alloca ptr, align 8
  store ptr %0, ptr %3, align 8
  store ptr %1, ptr %4, align 8
  %5 = load ptr, ptr %3, align 8
  %6 = load ptr, ptr %4, align 8
  %7 = call noundef nonnull align 1 dereferenceable(1) ptr @_ZN4absl7debian27forwardISaISt4pairIKlNS0_13flat_hash_mapIPN10open_spiel10algorithms7MDPNodeEdNS0_18container_internal6HashEqIS8_vE4HashENSB_2EqESaIS2_IKS8_dEEEEEEEEOT_RNSt16remove_referenceISK_E4typeE(ptr noundef nonnull align 1 dereferenceable(1) %6) #3
  call void @_ZNSaISt4pairIKlN4absl7debian213flat_hash_mapIPN10open_spiel10algorithms7MDPNodeEdNS2_18container_internal6HashEqIS7_vE4HashENSA_2EqESaIS_IKS7_dEEEEEEC2ERKSI_(ptr noundef nonnull align 1 dereferenceable(1) %5, ptr noundef nonnull align 1 dereferenceable(1) %7) #3
  ret void
}

; Function Attrs: mustprogress nounwind uwtable
define linkonce_odr void @_ZN4absl7debian218container_internal25internal_compressed_tuple7StorageISt8equal_toIlELm3ELb1EEC2IS5_EENS0_10in_place_tEOT_(ptr noundef nonnull align 1 dereferenceable(1) %0, ptr noundef nonnull align 1 dereferenceable(1) %1) unnamed_addr #5 comdat align 2 {
  %3 = alloca ptr, align 8
  %4 = alloca ptr, align 8
  store ptr %0, ptr %3, align 8
  store ptr %1, ptr %4, align 8
  %5 = load ptr, ptr %4, align 8
  %6 = call noundef nonnull align 1 dereferenceable(1) ptr @_ZN4absl7debian27forwardISt8equal_toIlEEEOT_RNSt16remove_referenceIS4_E4typeE(ptr noundef nonnull align 1 dereferenceable(1) %5) #3
  ret void
}

; Function Attrs: mustprogress nounwind uwtable
define linkonce_odr void @_ZN4absl7debian218container_internal25internal_compressed_tuple7StorageINS0_13hash_internal4HashIlEELm2ELb1EEC2IS6_EENS0_10in_place_tEOT_(ptr noundef nonnull align 1 dereferenceable(1) %0, ptr noundef nonnull align 1 dereferenceable(1) %1) unnamed_addr #5 comdat align 2 {
  %3 = alloca ptr, align 8
  %4 = alloca ptr, align 8
  store ptr %0, ptr %3, align 8
  store ptr %1, ptr %4, align 8
  %5 = load ptr, ptr %4, align 8
  %6 = call noundef nonnull align 1 dereferenceable(1) ptr @_ZN4absl7debian27forwardINS0_13hash_internal4HashIlEEEEOT_RNSt16remove_referenceIS5_E4typeE(ptr noundef nonnull align 1 dereferenceable(1) %5) #3
  ret void
}

; Function Attrs: mustprogress nounwind uwtable
define linkonce_odr void @_ZN4absl7debian218container_internal25internal_compressed_tuple7StorageINS1_20HashtablezInfoHandleELm1ELb1EEC2IS4_EENS0_10in_place_tEOT_(ptr noundef nonnull align 1 dereferenceable(1) %0, ptr noundef nonnull align 1 dereferenceable(1) %1) unnamed_addr #5 comdat align 2 {
  %3 = alloca ptr, align 8
  %4 = alloca ptr, align 8
  store ptr %0, ptr %3, align 8
  store ptr %1, ptr %4, align 8
  %5 = load ptr, ptr %4, align 8
  %6 = call noundef nonnull align 1 dereferenceable(1) ptr @_ZN4absl7debian27forwardINS0_18container_internal20HashtablezInfoHandleEEEOT_RNSt16remove_referenceIS4_E4typeE(ptr noundef nonnull align 1 dereferenceable(1) %5) #3
  ret void
}

; Function Attrs: mustprogress nounwind uwtable
define linkonce_odr void @_ZN4absl7debian218container_internal25internal_compressed_tuple7StorageImLm0ELb0EEC2IiEENS0_10in_place_tEOT_(ptr noundef nonnull align 8 dereferenceable(8) %0, ptr noundef nonnull align 4 dereferenceable(4) %1) unnamed_addr #5 comdat align 2 {
  %3 = alloca ptr, align 8
  %4 = alloca ptr, align 8
  store ptr %0, ptr %3, align 8
  store ptr %1, ptr %4, align 8
  %5 = load ptr, ptr %3, align 8
  %6 = getelementptr inbounds nuw %"struct.absl::debian2::container_internal::internal_compressed_tuple::Storage", ptr %5, i32 0, i32 0
  %7 = load ptr, ptr %4, align 8
  %8 = call noundef nonnull align 4 dereferenceable(4) ptr @_ZN4absl7debian27forwardIiEEOT_RNSt16remove_referenceIS2_E4typeE(ptr noundef nonnull align 4 dereferenceable(4) %7) #3
  %9 = load i32, ptr %8, align 4
  %10 = sext i32 %9 to i64
  store i64 %10, ptr %6, align 8
  ret void
}

; Function Attrs: mustprogress nounwind uwtable
define linkonce_odr void @_ZNSt15__new_allocatorISt4pairIKlN4absl7debian213flat_hash_mapIPN10open_spiel10algorithms7MDPNodeEdNS3_18container_internal6HashEqIS8_vE4HashENSB_2EqESaIS0_IKS8_dEEEEEED2Ev(ptr noundef nonnull align 1 dereferenceable(1) %0) unnamed_addr #5 comdat align 2 {
  %2 = alloca ptr, align 8
  store ptr %0, ptr %2, align 8
  ret void
}

; Function Attrs: mustprogress uwtable
define linkonce_odr void @_ZN4absl7debian218container_internal25internal_compressed_tuple19CompressedTupleImplINS1_15CompressedTupleIJmNS1_20HashtablezInfoHandleENS0_13hash_internal4HashIlEESt8equal_toIlESaISt4pairIKlNS0_13flat_hash_mapIPN10open_spiel10algorithms7MDPNodeEdNS1_6HashEqISH_vE4HashENSJ_2EqESaISB_IKSH_dEEEEEEEEENS0_16integer_sequenceImJLm0ELm1ELm2ELm3ELm4EEEELb1EEC2IJiS5_S8_SA_SR_EEENS0_10in_place_tEDpOT_(ptr noundef nonnull align 8 dereferenceable(8) %0, ptr noundef nonnull align 4 dereferenceable(4) %1, ptr noundef nonnull align 1 dereferenceable(1) %2, ptr noundef nonnull align 1 dereferenceable(1) %3, ptr noundef nonnull align 1 dereferenceable(1) %4, ptr noundef nonnull align 1 dereferenceable(1) %5) unnamed_addr #4 comdat align 2 {
  %7 = alloca ptr, align 8
  %8 = alloca ptr, align 8
  %9 = alloca ptr, align 8
  %10 = alloca ptr, align 8
  %11 = alloca ptr, align 8
  %12 = alloca ptr, align 8
  store ptr %0, ptr %7, align 8
  store ptr %1, ptr %8, align 8
  store ptr %2, ptr %9, align 8
  store ptr %3, ptr %10, align 8
  store ptr %4, ptr %11, align 8
  store ptr %5, ptr %12, align 8
  %13 = load ptr, ptr %7, align 8
  %14 = load ptr, ptr %8, align 8
  %15 = call noundef nonnull align 4 dereferenceable(4) ptr @_ZN4absl7debian27forwardIiEEOT_RNSt16remove_referenceIS2_E4typeE(ptr noundef nonnull align 4 dereferenceable(4) %14) #3
  call void @_ZN4absl7debian218container_internal25internal_compressed_tuple7StorageImLm0ELb0EEC2IiEENS0_10in_place_tEOT_(ptr noundef nonnull align 8 dereferenceable(8) %13, ptr noundef nonnull align 4 dereferenceable(4) %15)
  %16 = load ptr, ptr %9, align 8
  %17 = call noundef nonnull align 1 dereferenceable(1) ptr @_ZN4absl7debian27forwardINS0_18container_internal20HashtablezInfoHandleEEEOT_RNSt16remove_referenceIS4_E4typeE(ptr noundef nonnull align 1 dereferenceable(1) %16) #3
  call void @_ZN4absl7debian218container_internal25internal_compressed_tuple7StorageINS1_20HashtablezInfoHandleELm1ELb1EEC2IS4_EENS0_10in_place_tEOT_(ptr noundef nonnull align 1 dereferenceable(1) %13, ptr noundef nonnull align 1 dereferenceable(1) %17)
  %18 = load ptr, ptr %10, align 8
  %19 = call noundef nonnull align 1 dereferenceable(1) ptr @_ZN4absl7debian27forwardINS0_13hash_internal4HashIlEEEEOT_RNSt16remove_referenceIS5_E4typeE(ptr noundef nonnull align 1 dereferenceable(1) %18) #3
  call void @_ZN4absl7debian218container_internal25internal_compressed_tuple7StorageINS0_13hash_internal4HashIlEELm2ELb1EEC2IS6_EENS0_10in_place_tEOT_(ptr noundef nonnull align 1 dereferenceable(1) %13, ptr noundef nonnull align 1 dereferenceable(1) %19)
  %20 = load ptr, ptr %11, align 8
  %21 = call noundef nonnull align 1 dereferenceable(1) ptr @_ZN4absl7debian27forwardISt8equal_toIlEEEOT_RNSt16remove_referenceIS4_E4typeE(ptr noundef nonnull align 1 dereferenceable(1) %20) #3
  call void @_ZN4absl7debian218container_internal25internal_compressed_tuple7StorageISt8equal_toIlELm3ELb1EEC2IS5_EENS0_10in_place_tEOT_(ptr noundef nonnull align 1 dereferenceable(1) %13, ptr noundef nonnull align 1 dereferenceable(1) %21)
  %22 = load ptr, ptr %12, align 8
  %23 = call noundef nonnull align 1 dereferenceable(1) ptr @_ZN4absl7debian27forwardISaISt4pairIKlNS0_13flat_hash_mapIPN10open_spiel10algorithms7MDPNodeEdNS0_18container_internal6HashEqIS8_vE4HashENSB_2EqESaIS2_IKS8_dEEEEEEEEOT_RNSt16remove_referenceISK_E4typeE(ptr noundef nonnull align 1 dereferenceable(1) %22) #3
  call void @_ZN4absl7debian218container_internal25internal_compressed_tuple7StorageISaISt4pairIKlNS0_13flat_hash_mapIPN10open_spiel10algorithms7MDPNodeEdNS1_6HashEqISA_vE4HashENSC_2EqESaIS4_IKSA_dEEEEEELm4ELb1EEC2ISK_EENS0_10in_place_tEOT_(ptr noundef nonnull align 1 dereferenceable(1) %13, ptr noundef nonnull align 1 dereferenceable(1) %23)
  ret void
}

; Function Attrs: mustprogress nounwind uwtable
define linkonce_odr noundef nonnull align 1 dereferenceable(1) ptr @_ZN4absl7debian27forwardISaISt4pairIKlNS0_13flat_hash_mapIPN10open_spiel10algorithms7MDPNodeEdNS0_18container_internal6HashEqIS8_vE4HashENSB_2EqESaIS2_IKS8_dEEEEEEEEOT_RNSt16remove_referenceISK_E4typeE(ptr noundef nonnull align 1 dereferenceable(1) %0) #5 comdat {
  %2 = alloca ptr, align 8
  store ptr %0, ptr %2, align 8
  %3 = load ptr, ptr %2, align 8
  ret ptr %3
}

; Function Attrs: mustprogress nounwind uwtable
define linkonce_odr noundef nonnull align 1 dereferenceable(1) ptr @_ZN4absl7debian27forwardISt8equal_toIlEEEOT_RNSt16remove_referenceIS4_E4typeE(ptr noundef nonnull align 1 dereferenceable(1) %0) #5 comdat {
  %2 = alloca ptr, align 8
  store ptr %0, ptr %2, align 8
  %3 = load ptr, ptr %2, align 8
  ret ptr %3
}

; Function Attrs: mustprogress nounwind uwtable
define linkonce_odr noundef nonnull align 1 dereferenceable(1) ptr @_ZN4absl7debian27forwardINS0_13hash_internal4HashIlEEEEOT_RNSt16remove_referenceIS5_E4typeE(ptr noundef nonnull align 1 dereferenceable(1) %0) #5 comdat {
  %2 = alloca ptr, align 8
  store ptr %0, ptr %2, align 8
  %3 = load ptr, ptr %2, align 8
  ret ptr %3
}

; Function Attrs: mustprogress nounwind uwtable
define linkonce_odr noundef nonnull align 1 dereferenceable(1) ptr @_ZN4absl7debian27forwardINS0_18container_internal20HashtablezInfoHandleEEEOT_RNSt16remove_referenceIS4_E4typeE(ptr noundef nonnull align 1 dereferenceable(1) %0) #5 comdat {
  %2 = alloca ptr, align 8
  store ptr %0, ptr %2, align 8
  %3 = load ptr, ptr %2, align 8
  ret ptr %3
}

; Function Attrs: mustprogress nounwind uwtable
define linkonce_odr noundef nonnull align 4 dereferenceable(4) ptr @_ZN4absl7debian27forwardIiEEOT_RNSt16remove_referenceIS2_E4typeE(ptr noundef nonnull align 4 dereferenceable(4) %0) #5 comdat {
  %2 = alloca ptr, align 8
  store ptr %0, ptr %2, align 8
  %3 = load ptr, ptr %2, align 8
  ret ptr %3
}

; Function Attrs: mustprogress nounwind uwtable
define linkonce_odr void @_ZNSt15__new_allocatorISt4pairIKlN4absl7debian213flat_hash_mapIPN10open_spiel10algorithms7MDPNodeEdNS3_18container_internal6HashEqIS8_vE4HashENSB_2EqESaIS0_IKS8_dEEEEEEC2Ev(ptr noundef nonnull align 1 dereferenceable(1) %0) unnamed_addr #5 comdat align 2 {
  %2 = alloca ptr, align 8
  store ptr %0, ptr %2, align 8
  ret void
}

; Function Attrs: noreturn nounwind uwtable
define linkonce_odr hidden void @__clang_call_terminate(ptr noundef %0) #10 comdat {
  %2 = call ptr @__cxa_begin_catch(ptr %0) #3
  call void @_ZSt9terminatev() #20
  unreachable
}

; Function Attrs: mustprogress nounwind uwtable
define linkonce_odr void @_ZNSaISt4pairIKlN4absl7debian213flat_hash_mapIPN10open_spiel10algorithms7MDPNodeEdNS2_18container_internal6HashEqIS7_vE4HashENSA_2EqESaIS_IKS7_dEEEEEED2Ev(ptr noundef nonnull align 1 dereferenceable(1) %0) unnamed_addr #5 comdat align 2 {
  %2 = alloca ptr, align 8
  store ptr %0, ptr %2, align 8
  %3 = load ptr, ptr %2, align 8
  call void @_ZNSt15__new_allocatorISt4pairIKlN4absl7debian213flat_hash_mapIPN10open_spiel10algorithms7MDPNodeEdNS3_18container_internal6HashEqIS8_vE4HashENSB_2EqESaIS0_IKS8_dEEEEEED2Ev(ptr noundef nonnull align 1 dereferenceable(1) %3) #3
  ret void
}

; Function Attrs: mustprogress uwtable
define linkonce_odr void @_ZN4absl7debian218container_internal15CompressedTupleIJmNS1_20HashtablezInfoHandleENS0_13hash_internal4HashIlEESt8equal_toIlESaISt4pairIKlNS0_13flat_hash_mapIPN10open_spiel10algorithms7MDPNodeEdNS1_6HashEqISF_vE4HashENSH_2EqESaIS9_IKSF_dEEEEEEEEC2IiJS3_S6_S8_SP_ETnNSt9enable_ifIXsr4absl11conjunctionINS0_8negationISt7is_sameIFvSQ_EFvNSt5decayIT_E4typeEEEEENS1_25internal_compressed_tuple27TupleItemsMoveConstructibleISQ_JSX_DpT0_EEEEE5valueEbE4typeELb1EEEOSX_DpOS15_(ptr noundef nonnull align 8 dereferenceable(8) %0, ptr noundef nonnull align 4 dereferenceable(4) %1, ptr noundef nonnull align 1 dereferenceable(1) %2, ptr noundef nonnull align 1 dereferenceable(1) %3, ptr noundef nonnull align 1 dereferenceable(1) %4, ptr noundef nonnull align 1 dereferenceable(1) %5) unnamed_addr #4 comdat align 2 {
  %7 = alloca ptr, align 8
  %8 = alloca ptr, align 8
  %9 = alloca ptr, align 8
  %10 = alloca ptr, align 8
  %11 = alloca ptr, align 8
  %12 = alloca ptr, align 8
  store ptr %0, ptr %7, align 8
  store ptr %1, ptr %8, align 8
  store ptr %2, ptr %9, align 8
  store ptr %3, ptr %10, align 8
  store ptr %4, ptr %11, align 8
  store ptr %5, ptr %12, align 8
  %13 = load ptr, ptr %7, align 8
  %14 = load ptr, ptr %8, align 8
  %15 = call noundef nonnull align 4 dereferenceable(4) ptr @_ZN4absl7debian27forwardIiEEOT_RNSt16remove_referenceIS2_E4typeE(ptr noundef nonnull align 4 dereferenceable(4) %14) #3
  %16 = load ptr, ptr %9, align 8
  %17 = call noundef nonnull align 1 dereferenceable(1) ptr @_ZN4absl7debian27forwardINS0_18container_internal20HashtablezInfoHandleEEEOT_RNSt16remove_referenceIS4_E4typeE(ptr noundef nonnull align 1 dereferenceable(1) %16) #3
  %18 = load ptr, ptr %10, align 8
  %19 = call noundef nonnull align 1 dereferenceable(1) ptr @_ZN4absl7debian27forwardINS0_13hash_internal4HashIlEEEEOT_RNSt16remove_referenceIS5_E4typeE(ptr noundef nonnull align 1 dereferenceable(1) %18) #3
  %20 = load ptr, ptr %11, align 8
  %21 = call noundef nonnull align 1 dereferenceable(1) ptr @_ZN4absl7debian27forwardISt8equal_toIlEEEOT_RNSt16remove_referenceIS4_E4typeE(ptr noundef nonnull align 1 dereferenceable(1) %20) #3
  %22 = load ptr, ptr %12, align 8
  %23 = call noundef nonnull align 1 dereferenceable(1) ptr @_ZN4absl7debian27forwardISaISt4pairIKlNS0_13flat_hash_mapIPN10open_spiel10algorithms7MDPNodeEdNS0_18container_internal6HashEqIS8_vE4HashENSB_2EqESaIS2_IKS8_dEEEEEEEEOT_RNSt16remove_referenceISK_E4typeE(ptr noundef nonnull align 1 dereferenceable(1) %22) #3
  call void @_ZN4absl7debian218container_internal25internal_compressed_tuple19CompressedTupleImplINS1_15CompressedTupleIJmNS1_20HashtablezInfoHandleENS0_13hash_internal4HashIlEESt8equal_toIlESaISt4pairIKlNS0_13flat_hash_mapIPN10open_spiel10algorithms7MDPNodeEdNS1_6HashEqISH_vE4HashENSJ_2EqESaISB_IKSH_dEEEEEEEEENS0_16integer_sequenceImJLm0ELm1ELm2ELm3ELm4EEEELb1EEC2IJiS5_S8_SA_SR_EEENS0_10in_place_tEDpOT_(ptr noundef nonnull align 8 dereferenceable(8) %13, ptr noundef nonnull align 4 dereferenceable(4) %15, ptr noundef nonnull align 1 dereferenceable(1) %17, ptr noundef nonnull align 1 dereferenceable(1) %19, ptr noundef nonnull align 1 dereferenceable(1) %21, ptr noundef nonnull align 1 dereferenceable(1) %23)
  ret void
}

; Function Attrs: mustprogress nounwind uwtable
define linkonce_odr void @_ZNSaISt4pairIKlN4absl7debian213flat_hash_mapIPN10open_spiel10algorithms7MDPNodeEdNS2_18container_internal6HashEqIS7_vE4HashENSA_2EqESaIS_IKS7_dEEEEEEC2Ev(ptr noundef nonnull align 1 dereferenceable(1) %0) unnamed_addr #5 comdat align 2 {
  %2 = alloca ptr, align 8
  store ptr %0, ptr %2, align 8
  %3 = load ptr, ptr %2, align 8
  call void @_ZNSt15__new_allocatorISt4pairIKlN4absl7debian213flat_hash_mapIPN10open_spiel10algorithms7MDPNodeEdNS3_18container_internal6HashEqIS8_vE4HashENSB_2EqESaIS0_IKS8_dEEEEEEC2Ev(ptr noundef nonnull align 1 dereferenceable(1) %3) #3
  ret void
}

; Function Attrs: mustprogress nounwind uwtable
define linkonce_odr noundef ptr @_ZN4absl7debian218container_internal10EmptyGroupEv() #5 comdat {
  ret ptr @_ZZN4absl7debian218container_internal10EmptyGroupEvE11empty_group
}

; Function Attrs: mustprogress nounwind uwtable
define linkonce_odr void @_ZN4absl7debian218container_internal12raw_hash_setINS1_17FlatHashMapPolicyIlNS0_13flat_hash_mapIPN10open_spiel10algorithms7MDPNodeEdNS1_6HashEqIS8_vE4HashENSA_2EqESaISt4pairIKS8_dEEEEEENS0_13hash_internal4HashIlEESt8equal_toIlESaISD_IKlSH_EEEC2Ev(ptr noundef nonnull align 8 dereferenceable(40) %0) unnamed_addr #5 comdat align 2 personality ptr @__gxx_personality_v0 {
  %2 = alloca ptr, align 8
  %3 = alloca i32, align 4
  %4 = alloca %"class.absl::debian2::container_internal::HashtablezInfoHandle", align 1
  %5 = alloca %"struct.absl::debian2::hash_internal::Hash", align 1
  %6 = alloca %"struct.std::equal_to", align 1
  %7 = alloca %"class.std::allocator", align 1
  store ptr %0, ptr %2, align 8
  %8 = load ptr, ptr %2, align 8
  %9 = getelementptr inbounds nuw %"class.absl::debian2::container_internal::raw_hash_set", ptr %8, i32 0, i32 0
  %10 = call noundef ptr @_ZN4absl7debian218container_internal10EmptyGroupEv()
  store ptr %10, ptr %9, align 8
  %11 = getelementptr inbounds nuw %"class.absl::debian2::container_internal::raw_hash_set", ptr %8, i32 0, i32 1
  store ptr null, ptr %11, align 8
  %12 = getelementptr inbounds nuw %"class.absl::debian2::container_internal::raw_hash_set", ptr %8, i32 0, i32 2
  store i64 0, ptr %12, align 8
  %13 = getelementptr inbounds nuw %"class.absl::debian2::container_internal::raw_hash_set", ptr %8, i32 0, i32 3
  store i64 0, ptr %13, align 8
  %14 = getelementptr inbounds nuw %"class.absl::debian2::container_internal::raw_hash_set", ptr %8, i32 0, i32 4
  store i32 0, ptr %3, align 4
  call void @_ZNSaISt4pairIKlN4absl7debian213flat_hash_mapIPN10open_spiel10algorithms7MDPNodeEdNS2_18container_internal6HashEqIS7_vE4HashENSA_2EqESaIS_IKS7_dEEEEEEC2Ev(ptr noundef nonnull align 1 dereferenceable(1) %7) #3
  invoke void @_ZN4absl7debian218container_internal15CompressedTupleIJmNS1_20HashtablezInfoHandleENS0_13hash_internal4HashIlEESt8equal_toIlESaISt4pairIKlNS0_13flat_hash_mapIPN10open_spiel10algorithms7MDPNodeEdNS1_6HashEqISF_vE4HashENSH_2EqESaIS9_IKSF_dEEEEEEEEC2IiJS3_S6_S8_SP_ETnNSt9enable_ifIXsr4absl11conjunctionINS0_8negationISt7is_sameIFvSQ_EFvNSt5decayIT_E4typeEEEEENS1_25internal_compressed_tuple27TupleItemsMoveConstructibleISQ_JSX_DpT0_EEEEE5valueEbE4typeELb1EEEOSX_DpOS15_(ptr noundef nonnull align 8 dereferenceable(8) %14, ptr noundef nonnull align 4 dereferenceable(4) %3, ptr noundef nonnull align 1 dereferenceable(1) %4, ptr noundef nonnull align 1 dereferenceable(1) %5, ptr noundef nonnull align 1 dereferenceable(1) %6, ptr noundef nonnull align 1 dereferenceable(1) %7)
          to label %15 unwind label %16

15:                                               ; preds = %1
  call void @_ZNSaISt4pairIKlN4absl7debian213flat_hash_mapIPN10open_spiel10algorithms7MDPNodeEdNS2_18container_internal6HashEqIS7_vE4HashENSA_2EqESaIS_IKS7_dEEEEEED2Ev(ptr noundef nonnull align 1 dereferenceable(1) %7) #3
  ret void

16:                                               ; preds = %1
  %17 = landingpad { ptr, i32 }
          catch ptr null
  %18 = extractvalue { ptr, i32 } %17, 0
  call void @__clang_call_terminate(ptr %18) #20
  unreachable
}

; Function Attrs: mustprogress nounwind uwtable
define linkonce_odr void @_ZN4absl7debian218container_internal12raw_hash_mapINS1_17FlatHashMapPolicyIlNS0_13flat_hash_mapIPN10open_spiel10algorithms7MDPNodeEdNS1_6HashEqIS8_vE4HashENSA_2EqESaISt4pairIKS8_dEEEEEENS0_13hash_internal4HashIlEESt8equal_toIlESaISD_IKlSH_EEEC2Ev(ptr noundef nonnull align 8 dereferenceable(40) %0) unnamed_addr #5 comdat align 2 {
  %2 = alloca ptr, align 8
  store ptr %0, ptr %2, align 8
  %3 = load ptr, ptr %2, align 8
  call void @_ZN4absl7debian218container_internal12raw_hash_setINS1_17FlatHashMapPolicyIlNS0_13flat_hash_mapIPN10open_spiel10algorithms7MDPNodeEdNS1_6HashEqIS8_vE4HashENSA_2EqESaISt4pairIKS8_dEEEEEENS0_13hash_internal4HashIlEESt8equal_toIlESaISD_IKlSH_EEEC2Ev(ptr noundef nonnull align 8 dereferenceable(40) %3) #3
  ret void
}

; Function Attrs: mustprogress uwtable
define linkonce_odr void @_ZN4absl7debian213flat_hash_mapIlNS1_IPN10open_spiel10algorithms7MDPNodeEdNS0_18container_internal6HashEqIS5_vE4HashENS8_2EqESaISt4pairIKS5_dEEEENS0_13hash_internal4HashIlEESt8equal_toIlESaISB_IKlSF_EEEC2Ev(ptr noundef nonnull align 8 dereferenceable(40) %0) unnamed_addr #4 comdat align 2 {
  %2 = alloca ptr, align 8
  store ptr %0, ptr %2, align 8
  %3 = load ptr, ptr %2, align 8
  call void @_ZN4absl7debian218container_internal12raw_hash_mapINS1_17FlatHashMapPolicyIlNS0_13flat_hash_mapIPN10open_spiel10algorithms7MDPNodeEdNS1_6HashEqIS8_vE4HashENSA_2EqESaISt4pairIKS8_dEEEEEENS0_13hash_internal4HashIlEESt8equal_toIlESaISD_IKlSH_EEEC2Ev(ptr noundef nonnull align 8 dereferenceable(40) %3)
  ret void
}

; Function Attrs: mustprogress uwtable
define void @_ZN10open_spiel10algorithms7MDPNodeC2ERKNSt7__cxx1112basic_stringIcSt11char_traitsIcESaIcEEE(ptr noundef nonnull align 8 dereferenceable(96) %0, ptr noundef nonnull align 8 dereferenceable(32) %1) unnamed_addr #4 align 2 personality ptr @__gxx_personality_v0 {
  %3 = alloca ptr, align 8
  %4 = alloca ptr, align 8
  %5 = alloca ptr, align 8
  %6 = alloca i32, align 4
  store ptr %0, ptr %3, align 8
  store ptr %1, ptr %4, align 8
  %7 = load ptr, ptr %3, align 8
  %8 = getelementptr inbounds nuw %"class.open_spiel::algorithms::MDPNode", ptr %7, i32 0, i32 0
  store i8 0, ptr %8, align 8
  %9 = getelementptr inbounds nuw %"class.open_spiel::algorithms::MDPNode", ptr %7, i32 0, i32 1
  store double 0.000000e+00, ptr %9, align 8
  %10 = getelementptr inbounds nuw %"class.open_spiel::algorithms::MDPNode", ptr %7, i32 0, i32 2
  call void @_ZN4absl7debian213flat_hash_mapIlNS1_IPN10open_spiel10algorithms7MDPNodeEdNS0_18container_internal6HashEqIS5_vE4HashENS8_2EqESaISt4pairIKS5_dEEEENS0_13hash_internal4HashIlEESt8equal_toIlESaISB_IKlSF_EEEC2Ev(ptr noundef nonnull align 8 dereferenceable(40) %10)
  %11 = getelementptr inbounds nuw %"class.open_spiel::algorithms::MDPNode", ptr %7, i32 0, i32 3
  store double 0.000000e+00, ptr %11, align 8
  %12 = getelementptr inbounds nuw %"class.open_spiel::algorithms::MDPNode", ptr %7, i32 0, i32 4
  %13 = load ptr, ptr %4, align 8
  invoke void @_ZNSt7__cxx1112basic_stringIcSt11char_traitsIcESaIcEEC1ERKS4_(ptr noundef nonnull align 8 dereferenceable(32) %12, ptr noundef nonnull align 8 dereferenceable(32) %13)
          to label %14 unwind label %15

14:                                               ; preds = %2
  ret void

15:                                               ; preds = %2
  %16 = landingpad { ptr, i32 }
          cleanup
  %17 = extractvalue { ptr, i32 } %16, 0
  store ptr %17, ptr %5, align 8
  %18 = extractvalue { ptr, i32 } %16, 1
  store i32 %18, ptr %6, align 4
  call void @_ZN4absl7debian213flat_hash_mapIlNS1_IPN10open_spiel10algorithms7MDPNodeEdNS0_18container_internal6HashEqIS5_vE4HashENS8_2EqESaISt4pairIKS5_dEEEENS0_13hash_internal4HashIlEESt8equal_toIlESaISB_IKlSF_EEED2Ev(ptr noundef nonnull align 8 dereferenceable(40) %10) #3
  br label %19

19:                                               ; preds = %15
  %20 = load ptr, ptr %5, align 8
  %21 = load i32, ptr %6, align 4
  %22 = insertvalue { ptr, i32 } poison, ptr %20, 0
  %23 = insertvalue { ptr, i32 } %22, i32 %21, 1
  resume { ptr, i32 } %23
}