; Function Attrs: mustprogress uwtable
define void @_ZN10open_spiel10algorithms7MDPNodeC2ERKNSt7__cxx1112basic_stringIcSt11char_traitsIcESaIcEEE(ptr noundef nonnull align 8 dereferenceable(96) initializes((0, 1), (8, 64)) %0, ptr noundef nonnull align 8 dereferenceable(32) %1) unnamed_addr #3 align 2 personality ptr @__gxx_personality_v0 {
  store i8 0, ptr %0, align 8
  %3 = getelementptr inbounds nuw i8, ptr %0, i64 8
  store double 0.000000e+00, ptr %3, align 8
  %4 = getelementptr inbounds nuw i8, ptr %0, i64 16
  store ptr @_ZZN4absl7debian218container_internal10EmptyGroupEvE11empty_group, ptr %4, align 8
  %5 = getelementptr inbounds nuw i8, ptr %0, i64 24
  %6 = getelementptr inbounds nuw i8, ptr %0, i64 64
  tail call void @llvm.memset.p0.i64(ptr noundef nonnull align 8 dereferenceable(40) %5, i8 0, i64 40, i1 false)
  invoke void @_ZNSt7__cxx1112basic_stringIcSt11char_traitsIcESaIcEEC1ERKS4_(ptr noundef nonnull align 8 dereferenceable(32) %6, ptr noundef nonnull align 8 dereferenceable(32) %1)
          to label %7 unwind label %8

7:                                                ; preds = %2
  ret void

8:                                                ; preds = %2
  %9 = landingpad { ptr, i32 }
          cleanup
  tail call void @_ZN4absl7debian213flat_hash_mapIlNS1_IPN10open_spiel10algorithms7MDPNodeEdNS0_18container_internal6HashEqIS5_vE4HashENS8_2EqESaISt4pairIKS5_dEEEENS0_13hash_internal4HashIlEESt8equal_toIlESaISB_IKlSF_EEED2Ev(ptr noundef nonnull align 8 dereferenceable(40) %4) #23
  resume { ptr, i32 } %9
}